target datalayout = "e-m:e-p270:32:32-p271:32:32-p272:64:64-i64:64-i128:128-f80:128-n8:16:32:64-S128"
target triple = "x86_64-pc-linux-gnu"

%"class.std::__cxx11::basic_string" = type { %"struct.std::__cxx11::basic_string<char>::_Alloc_hider", i64, %union.anon }
%"struct.std::__cxx11::basic_string<char>::_Alloc_hider" = type { ptr }
%union.anon = type { i64, [8 x i8] }

; Function Attrs: mustprogress nounwind uwtable
define available_externally noundef i64 @_ZNKSt7__cxx1112basic_stringIcSt11char_traitsIcESaIcEE6lengthEv(ptr noundef nonnull align 8 dereferenceable(32) %0) #4 align 2 {
  %2 = alloca ptr, align 8
  store ptr %0, ptr %2, align 8, !tbaa !17
  %3 = load ptr, ptr %2, align 8
  %4 = getelementptr inbounds nuw %"class.std::__cxx11::basic_string", ptr %3, i32 0, i32 1
  %5 = load i64, ptr %4, align 8, !tbaa !36
  ret i64 %5
}

; Function Attrs: mustprogress uwtable
define dso_local noundef zeroext i1 @_ZN7VString8endsWithERKNSt7__cxx1112basic_stringIcSt11char_traitsIcESaIcEEES7_(ptr noundef nonnull align 8 dereferenceable(32) %0, ptr noundef nonnull align 8 dereferenceable(32) %1) #5 align 2 {
  %3 = alloca i1, align 1
  %4 = alloca ptr, align 8
  %5 = alloca ptr, align 8
  store ptr %0, ptr %4, align 8, !tbaa !17
  store ptr %1, ptr %5, align 8, !tbaa !17
  %6 = load ptr, ptr %4, align 8, !tbaa !17
  %7 = call noundef i64 @_ZNKSt7__cxx1112basic_stringIcSt11char_traitsIcESaIcEE6lengthEv(ptr noundef nonnull align 8 dereferenceable(32) %6) #3
  %8 = load ptr, ptr %5, align 8, !tbaa !17
  %9 = call noundef i64 @_ZNKSt7__cxx1112basic_stringIcSt11char_traitsIcESaIcEE6lengthEv(ptr noundef nonnull align 8 dereferenceable(32) %8) #3
  %10 = icmp ult i64 %7, %9
  br i1 %10, label %11, label %12

11:                                               ; preds = %2
  store i1 false, ptr %3, align 1
  br label %24

12:                                               ; preds = %2
  %13 = load ptr, ptr %4, align 8, !tbaa !17
  %14 = load ptr, ptr %4, align 8, !tbaa !17
  %15 = call noundef i64 @_ZNKSt7__cxx1112basic_stringIcSt11char_traitsIcESaIcEE6lengthEv(ptr noundef nonnull align 8 dereferenceable(32) %14) #3
  %16 = load ptr, ptr %5, align 8, !tbaa !17
  %17 = call noundef i64 @_ZNKSt7__cxx1112basic_stringIcSt11char_traitsIcESaIcEE6lengthEv(ptr noundef nonnull align 8 dereferenceable(32) %16) #3
  %18 = sub i64 %15, %17
  %19 = load ptr, ptr %5, align 8, !tbaa !17
  %20 = call noundef i64 @_ZNKSt7__cxx1112basic_stringIcSt11char_traitsIcESaIcEE6lengthEv(ptr noundef nonnull align 8 dereferenceable(32) %19) #3
  %21 = load ptr, ptr %5, align 8, !tbaa !17
  %22 = call noundef i32 @_ZNKSt7__cxx1112basic_stringIcSt11char_traitsIcESaIcEE7compareEmmRKS4_(ptr noundef nonnull align 8 dereferenceable(32) %13, i64 noundef %18, i64 noundef %20, ptr noundef nonnull align 8 dereferenceable(32) %21)
  %23 = icmp eq i32 %22, 0
  store i1 %23, ptr %3, align 1
  br label %24

24:                                               ; preds = %12, %11
  %25 = load i1, ptr %3, align 1
  ret i1 %25
}