; Function Attrs: mustprogress uwtable
define dso_local noundef zeroext i1 @_ZN7VString8endsWithERKNSt7__cxx1112basic_stringIcSt11char_traitsIcESaIcEEES7_(ptr noundef nonnull align 8 dereferenceable(32) %0, ptr noundef nonnull align 8 dereferenceable(32) %1) local_unnamed_addr #6 align 2 {
  %3 = getelementptr inbounds nuw i8, ptr %0, i64 8
  %4 = load i64, ptr %3, align 8, !tbaa !24
  %5 = getelementptr inbounds nuw i8, ptr %1, i64 8
  %6 = load i64, ptr %5, align 8, !tbaa !24
  %7 = icmp ult i64 %4, %6
  br i1 %7, label %12, label %8

8:                                                ; preds = %2
  %9 = sub nuw i64 %4, %6
  %10 = tail call noundef i32 @_ZNKSt7__cxx1112basic_stringIcSt11char_traitsIcESaIcEE7compareEmmRKS4_(ptr noundef nonnull align 8 dereferenceable(32) %0, i64 noundef %9, i64 noundef %6, ptr noundef nonnull align 8 dereferenceable(32) %1)
  %11 = icmp eq i32 %10, 0
  br label %12

12:                                               ; preds = %2, %8
  %.0 = phi i1 [ %11, %8 ], [ false, %2 ]
  ret i1 %.0
}